; Function Attrs: mustprogress nofree norecurse nosync nounwind willreturn memory(write, argmem: readwrite, inaccessiblemem: none) uwtable
define internal void @reset_marker_reader(ptr noundef captures(none) initializes((172, 176), (304, 312), (540, 544)) %0) #2 {
  %2 = getelementptr inbounds nuw i8, ptr %0, i64 584
  %3 = load ptr, ptr %2, align 8, !tbaa !41
  %4 = getelementptr inbounds nuw i8, ptr %0, i64 304
  store ptr null, ptr %4, align 8, !tbaa !58
  %5 = getelementptr inbounds nuw i8, ptr %0, i64 172
  store i32 0, ptr %5, align 4, !tbaa !59
  %6 = getelementptr inbounds nuw i8, ptr %0, i64 540
  store i32 0, ptr %6, align 4, !tbaa !3
  %7 = getelementptr inbounds nuw i8, ptr %3, i64 24
  store i32 0, ptr %7, align 8, !tbaa !60
  %8 = getelementptr inbounds nuw i8, ptr %3, i64 28
  store i32 0, ptr %8, align 4, !tbaa !61
  %9 = getelementptr inbounds nuw i8, ptr %3, i64 36
  store i32 0, ptr %9, align 4, !tbaa !62
  %10 = getelementptr inbounds nuw i8, ptr %3, i64 248
  store ptr null, ptr %10, align 8, !tbaa !63
  ret void
}